; Function Attrs: mustprogress uwtable
define hidden noundef ptr @_ZN15fpa_decl_plugin7mk_sortEijPK9parameter(ptr nocapture noundef nonnull readonly align 8 dereferenceable(1008) %this, i32 noundef %k, i32 noundef %num_parameters, ptr nocapture noundef readonly %parameters) unnamed_addr #3 align 2 {
entry:
  switch i32 %k, label %sw.default [
    i32 0, label %sw.bb
    i32 1, label %sw.bb10
    i32 2, label %sw.bb12
    i32 3, label %sw.bb14
    i32 4, label %sw.bb16
    i32 5, label %sw.bb18
  ]

sw.bb:                                            ; preds = %entry
  %cmp = icmp eq i32 %num_parameters, 2
  br i1 %cmp, label %land.lhs.true, label %if.then

land.lhs.true:                                    ; preds = %sw.bb
  %_M_index.i.i.i = getelementptr inbounds i8, ptr %parameters, i64 8
  %0 = load i8, ptr %_M_index.i.i.i, align 8
  %cmp.i = icmp eq i8 %0, 0
  br i1 %cmp.i, label %land.lhs.true2, label %if.then

land.lhs.true2:                                   ; preds = %land.lhs.true
  %_M_index.i.i.i4 = getelementptr inbounds i8, ptr %parameters, i64 24
  %1 = load i8, ptr %_M_index.i.i.i4, align 8
  %cmp.i5 = icmp eq i8 %1, 0
  br i1 %cmp.i5, label %_ZNK9parameter7get_intEv.exit11, label %if.then

if.then:                                          ; preds = %land.lhs.true2, %land.lhs.true, %sw.bb
  %m_manager = getelementptr inbounds i8, ptr %this, i64 8
  %2 = load ptr, ptr %m_manager, align 8
  tail call void @_ZN11ast_manager15raise_exceptionEPKc(ptr noundef nonnull align 8 dereferenceable(976) %2, ptr noundef nonnull @.str.14) #21
  unreachable

_ZNK9parameter7get_intEv.exit11:                  ; preds = %land.lhs.true2
  %arrayidx3 = getelementptr inbounds i8, ptr %parameters, i64 16
  %3 = load i32, ptr %parameters, align 4
  %4 = load i32, ptr %arrayidx3, align 4
  %call9 = tail call noundef ptr @_ZN15fpa_decl_plugin13mk_float_sortEjj(ptr noundef nonnull align 8 dereferenceable(1008) %this, i32 noundef %3, i32 noundef %4)
  br label %return

sw.bb10:                                          ; preds = %entry
  %call11 = tail call noundef ptr @_ZN15fpa_decl_plugin10mk_rm_sortEv(ptr noundef nonnull align 8 dereferenceable(1008) %this)
  br label %return

sw.bb12:                                          ; preds = %entry
  %call13 = tail call noundef ptr @_ZN15fpa_decl_plugin13mk_float_sortEjj(ptr noundef nonnull align 8 dereferenceable(1008) %this, i32 noundef 5, i32 noundef 11)
  br label %return

sw.bb14:                                          ; preds = %entry
  %call15 = tail call noundef ptr @_ZN15fpa_decl_plugin13mk_float_sortEjj(ptr noundef nonnull align 8 dereferenceable(1008) %this, i32 noundef 8, i32 noundef 24)
  br label %return

sw.bb16:                                          ; preds = %entry
  %call17 = tail call noundef ptr @_ZN15fpa_decl_plugin13mk_float_sortEjj(ptr noundef nonnull align 8 dereferenceable(1008) %this, i32 noundef 11, i32 noundef 53)
  br label %return

sw.bb18:                                          ; preds = %entry
  %call19 = tail call noundef ptr @_ZN15fpa_decl_plugin13mk_float_sortEjj(ptr noundef nonnull align 8 dereferenceable(1008) %this, i32 noundef 15, i32 noundef 113)
  br label %return

sw.default:                                       ; preds = %entry
  %m_manager20 = getelementptr inbounds i8, ptr %this, i64 8
  %5 = load ptr, ptr %m_manager20, align 8
  tail call void @_ZN11ast_manager15raise_exceptionEPKc(ptr noundef nonnull align 8 dereferenceable(976) %5, ptr noundef nonnull @.str.15) #21
  unreachable

return:                                           ; preds = %sw.bb18, %sw.bb16, %sw.bb14, %sw.bb12, %sw.bb10, %_ZNK9parameter7get_intEv.exit11
  %retval.0 = phi ptr [ %call19, %sw.bb18 ], [ %call17, %sw.bb16 ], [ %call15, %sw.bb14 ], [ %call13, %sw.bb12 ], [ %call11, %sw.bb10 ], [ %call9, %_ZNK9parameter7get_intEv.exit11 ]
  ret ptr %retval.0
}